ccopy_reg
_reconstructor
p0
(cgoogle.oauth2.credentials
Credentials
p1
c__builtin__
object
p2
Ntp3
Rp4
(dp5
S'_quota_project_id'
p6
NsS'_token_uri'
p7
Vhttps://oauth2.googleapis.com/token
p8
sS'_client_secret'
p9
VGWmcvuGQtJjygcdT4qts8y59
p10
sS'_id_token'
p11
NsS'token'
p12
Vya29.Il-3B4Yulm4-fD2PgmlS_y6KP7j7RfYTedSZWj8k51M1uA3JYtQEqDHBkU6y6HK1dEJDFAGOIWVtbeJU8Z65LTF30VkWwzVJGIAoh_g8eOtVRxnqQmOapaSiBGK4XkopWA
p13
sS'_refresh_token'
p14
V1//0dowJ1mU0fr-VCgYIARAAGA0SNwF-L9IrGXeqm2EL3Y7jDe53G05DlVRECLxxJpJOeVCt78D9tC6GOT7dT_L67faWiTe-QR8wlMU
p15
sS'_scopes'
p16
(lp17
S'https://www.googleapis.com/auth/calendar.readonly'
p18
asS'_client_id'
p19
V113251714125-9542foraknmlfrg6e0q97qt82in8psqu.apps.googleusercontent.com
p20
sS'expiry'
p21
cdatetime
datetime
p22
(S'\x07\xe4\x01\x02\x00!\x0e\x02\xd5>'
p23
tp24
Rp25
sb.